; Function Attrs: mustprogress uwtable
define hidden noundef zeroext i1 @_ZNK7datalog11rel_context17is_empty_relationEP9func_decl(ptr noundef nonnull align 8 dereferenceable(432) %this, ptr noundef %pred) unnamed_addr #3 align 2 {
entry:
  %vtable = load ptr, ptr %this, align 8
  %vfn = getelementptr inbounds i8, ptr %vtable, i64 216
  %0 = load ptr, ptr %vfn, align 8
  %call = tail call noundef ptr %0(ptr noundef nonnull align 8 dereferenceable(432) %this, ptr noundef %pred)
  %tobool.not = icmp eq ptr %call, null
  br i1 %tobool.not, label %lor.end, label %lor.rhs

lor.rhs:                                          ; preds = %entry
  %vtable2 = load ptr, ptr %call, align 8
  %vfn3 = getelementptr inbounds i8, ptr %vtable2, i64 32
  %1 = load ptr, ptr %vfn3, align 8
  %call4 = tail call noundef zeroext i1 %1(ptr noundef nonnull align 8 dereferenceable(28) %call)
  br label %lor.end

lor.end:                                          ; preds = %lor.rhs, %entry
  %2 = phi i1 [ true, %entry ], [ %call4, %lor.rhs ]
  ret i1 %2
}